target datalayout = "e-m:e-p270:32:32-p271:32:32-p272:64:64-i64:64-i128:128-f80:128-n8:16:32:64-S128"
target triple = "x86_64-pc-linux-gnu"

%struct.Smain = type { i32, ptr }

@.str = private unnamed_addr constant [21 x i8] c"no input files given\00", align 1
@.str.1 = private unnamed_addr constant [28 x i8] c"not enough memory for state\00", align 1
@progname = internal global ptr @.str.13, align 8
@.str.2 = private unnamed_addr constant [3 x i8] c"--\00", align 1
@.str.3 = private unnamed_addr constant [2 x i8] c"-\00", align 1
@.str.4 = private unnamed_addr constant [3 x i8] c"-l\00", align 1
@listing = internal global i32 0, align 4
@.str.5 = private unnamed_addr constant [3 x i8] c"-o\00", align 1
@output = internal global ptr @Output, align 8
@.str.6 = private unnamed_addr constant [20 x i8] c"'-o' needs argument\00", align 1
@.str.7 = private unnamed_addr constant [3 x i8] c"-p\00", align 1
@dumping = internal global i32 1, align 4
@.str.8 = private unnamed_addr constant [3 x i8] c"-s\00", align 1
@stripping = internal global i32 0, align 4
@.str.9 = private unnamed_addr constant [3 x i8] c"-v\00", align 1
@Output = internal global [9 x i8] c"luac.out\00", align 1
@.str.10 = private unnamed_addr constant [8 x i8] c"%s  %s\0A\00", align 1
@.str.11 = private unnamed_addr constant [10 x i8] c"Lua 5.1.5\00", align 1
@.str.12 = private unnamed_addr constant [41 x i8] c"Copyright (C) 1994-2012 Lua.org, PUC-Rio\00", align 1

; Function Attrs: nounwind uwtable
define internal i32 @doargs(i32 noundef %0, ptr noundef %1) #0 {
  %3 = alloca i32, align 4
  %4 = alloca ptr, align 8
  %5 = alloca i32, align 4
  %6 = alloca i32, align 4
  store i32 %0, ptr %3, align 4, !tbaa !4
  store ptr %1, ptr %4, align 8, !tbaa !8
  call void @llvm.lifetime.start.p0(i64 4, ptr %5) #7
  call void @llvm.lifetime.start.p0(i64 4, ptr %6) #7
  store i32 0, ptr %6, align 4, !tbaa !4
  %7 = load ptr, ptr %4, align 8, !tbaa !8
  %8 = getelementptr inbounds ptr, ptr %7, i64 0
  %9 = load ptr, ptr %8, align 8, !tbaa !16
  %10 = icmp ne ptr %9, null
  br i1 %10, label %11, label %22

11:                                               ; preds = %2
  %12 = load ptr, ptr %4, align 8, !tbaa !8
  %13 = getelementptr inbounds ptr, ptr %12, i64 0
  %14 = load ptr, ptr %13, align 8, !tbaa !16
  %15 = load i8, ptr %14, align 1, !tbaa !18
  %16 = sext i8 %15 to i32
  %17 = icmp ne i32 %16, 0
  br i1 %17, label %18, label %22

18:                                               ; preds = %11
  %19 = load ptr, ptr %4, align 8, !tbaa !8
  %20 = getelementptr inbounds ptr, ptr %19, i64 0
  %21 = load ptr, ptr %20, align 8, !tbaa !16
  store ptr %21, ptr @progname, align 8, !tbaa !16
  br label %22

22:                                               ; preds = %18, %11, %2
  store i32 1, ptr %5, align 4, !tbaa !4
  br label %23

23:                                               ; preds = %150, %22
  %24 = load i32, ptr %5, align 4, !tbaa !4
  %25 = load i32, ptr %3, align 4, !tbaa !4
  %26 = icmp slt i32 %24, %25
  br i1 %26, label %27, label %153

27:                                               ; preds = %23
  %28 = load ptr, ptr %4, align 8, !tbaa !8
  %29 = load i32, ptr %5, align 4, !tbaa !4
  %30 = sext i32 %29 to i64
  %31 = getelementptr inbounds ptr, ptr %28, i64 %30
  %32 = load ptr, ptr %31, align 8, !tbaa !16
  %33 = load i8, ptr %32, align 1, !tbaa !18
  %34 = sext i8 %33 to i32
  %35 = icmp ne i32 %34, 45
  br i1 %35, label %36, label %37

36:                                               ; preds = %27
  br label %153

37:                                               ; preds = %27
  %38 = load ptr, ptr %4, align 8, !tbaa !8
  %39 = load i32, ptr %5, align 4, !tbaa !4
  %40 = sext i32 %39 to i64
  %41 = getelementptr inbounds ptr, ptr %38, i64 %40
  %42 = load ptr, ptr %41, align 8, !tbaa !16
  %43 = call i32 @strcmp(ptr noundef %42, ptr noundef @.str.2) #8
  %44 = icmp eq i32 %43, 0
  br i1 %44, label %45, label %54

45:                                               ; preds = %37
  %46 = load i32, ptr %5, align 4, !tbaa !4
  %47 = add nsw i32 %46, 1
  store i32 %47, ptr %5, align 4, !tbaa !4
  %48 = load i32, ptr %6, align 4, !tbaa !4
  %49 = icmp ne i32 %48, 0
  br i1 %49, label %50, label %53

50:                                               ; preds = %45
  %51 = load i32, ptr %6, align 4, !tbaa !4
  %52 = add nsw i32 %51, 1
  store i32 %52, ptr %6, align 4, !tbaa !4
  br label %53

53:                                               ; preds = %50, %45
  br label %153

54:                                               ; preds = %37
  %55 = load ptr, ptr %4, align 8, !tbaa !8
  %56 = load i32, ptr %5, align 4, !tbaa !4
  %57 = sext i32 %56 to i64
  %58 = getelementptr inbounds ptr, ptr %55, i64 %57
  %59 = load ptr, ptr %58, align 8, !tbaa !16
  %60 = call i32 @strcmp(ptr noundef %59, ptr noundef @.str.3) #8
  %61 = icmp eq i32 %60, 0
  br i1 %61, label %62, label %63

62:                                               ; preds = %54
  br label %153

63:                                               ; preds = %54
  %64 = load ptr, ptr %4, align 8, !tbaa !8
  %65 = load i32, ptr %5, align 4, !tbaa !4
  %66 = sext i32 %65 to i64
  %67 = getelementptr inbounds ptr, ptr %64, i64 %66
  %68 = load ptr, ptr %67, align 8, !tbaa !16
  %69 = call i32 @strcmp(ptr noundef %68, ptr noundef @.str.4) #8
  %70 = icmp eq i32 %69, 0
  br i1 %70, label %71, label %74

71:                                               ; preds = %63
  %72 = load i32, ptr @listing, align 4, !tbaa !4
  %73 = add nsw i32 %72, 1
  store i32 %73, ptr @listing, align 4, !tbaa !4
  br label %146

74:                                               ; preds = %63
  %75 = load ptr, ptr %4, align 8, !tbaa !8
  %76 = load i32, ptr %5, align 4, !tbaa !4
  %77 = sext i32 %76 to i64
  %78 = getelementptr inbounds ptr, ptr %75, i64 %77
  %79 = load ptr, ptr %78, align 8, !tbaa !16
  %80 = call i32 @strcmp(ptr noundef %79, ptr noundef @.str.5) #8
  %81 = icmp eq i32 %80, 0
  br i1 %81, label %82, label %107

82:                                               ; preds = %74
  %83 = load ptr, ptr %4, align 8, !tbaa !8
  %84 = load i32, ptr %5, align 4, !tbaa !4
  %85 = add nsw i32 %84, 1
  store i32 %85, ptr %5, align 4, !tbaa !4
  %86 = sext i32 %85 to i64
  %87 = getelementptr inbounds ptr, ptr %83, i64 %86
  %88 = load ptr, ptr %87, align 8, !tbaa !16
  store ptr %88, ptr @output, align 8, !tbaa !16
  %89 = load ptr, ptr @output, align 8, !tbaa !16
  %90 = icmp eq ptr %89, null
  br i1 %90, label %96, label %91

91:                                               ; preds = %82
  %92 = load ptr, ptr @output, align 8, !tbaa !16
  %93 = load i8, ptr %92, align 1, !tbaa !18
  %94 = sext i8 %93 to i32
  %95 = icmp eq i32 %94, 0
  br i1 %95, label %96, label %97

96:                                               ; preds = %91, %82
  call void @usage(ptr noundef @.str.6)
  br label %97

97:                                               ; preds = %96, %91
  %98 = load ptr, ptr %4, align 8, !tbaa !8
  %99 = load i32, ptr %5, align 4, !tbaa !4
  %100 = sext i32 %99 to i64
  %101 = getelementptr inbounds ptr, ptr %98, i64 %100
  %102 = load ptr, ptr %101, align 8, !tbaa !16
  %103 = call i32 @strcmp(ptr noundef %102, ptr noundef @.str.3) #8
  %104 = icmp eq i32 %103, 0
  br i1 %104, label %105, label %106

105:                                              ; preds = %97
  store ptr null, ptr @output, align 8, !tbaa !16
  br label %106

106:                                              ; preds = %105, %97
  br label %145

107:                                              ; preds = %74
  %108 = load ptr, ptr %4, align 8, !tbaa !8
  %109 = load i32, ptr %5, align 4, !tbaa !4
  %110 = sext i32 %109 to i64
  %111 = getelementptr inbounds ptr, ptr %108, i64 %110
  %112 = load ptr, ptr %111, align 8, !tbaa !16
  %113 = call i32 @strcmp(ptr noundef %112, ptr noundef @.str.7) #8
  %114 = icmp eq i32 %113, 0
  br i1 %114, label %115, label %116

115:                                              ; preds = %107
  store i32 0, ptr @dumping, align 4, !tbaa !4
  br label %144

116:                                              ; preds = %107
  %117 = load ptr, ptr %4, align 8, !tbaa !8
  %118 = load i32, ptr %5, align 4, !tbaa !4
  %119 = sext i32 %118 to i64
  %120 = getelementptr inbounds ptr, ptr %117, i64 %119
  %121 = load ptr, ptr %120, align 8, !tbaa !16
  %122 = call i32 @strcmp(ptr noundef %121, ptr noundef @.str.8) #8
  %123 = icmp eq i32 %122, 0
  br i1 %123, label %124, label %125

124:                                              ; preds = %116
  store i32 1, ptr @stripping, align 4, !tbaa !4
  br label %143

125:                                              ; preds = %116
  %126 = load ptr, ptr %4, align 8, !tbaa !8
  %127 = load i32, ptr %5, align 4, !tbaa !4
  %128 = sext i32 %127 to i64
  %129 = getelementptr inbounds ptr, ptr %126, i64 %128
  %130 = load ptr, ptr %129, align 8, !tbaa !16
  %131 = call i32 @strcmp(ptr noundef %130, ptr noundef @.str.9) #8
  %132 = icmp eq i32 %131, 0
  br i1 %132, label %133, label %136

133:                                              ; preds = %125
  %134 = load i32, ptr %6, align 4, !tbaa !4
  %135 = add nsw i32 %134, 1
  store i32 %135, ptr %6, align 4, !tbaa !4
  br label %142

136:                                              ; preds = %125
  %137 = load ptr, ptr %4, align 8, !tbaa !8
  %138 = load i32, ptr %5, align 4, !tbaa !4
  %139 = sext i32 %138 to i64
  %140 = getelementptr inbounds ptr, ptr %137, i64 %139
  %141 = load ptr, ptr %140, align 8, !tbaa !16
  call void @usage(ptr noundef %141)
  br label %142

142:                                              ; preds = %136, %133
  br label %143

143:                                              ; preds = %142, %124
  br label %144

144:                                              ; preds = %143, %115
  br label %145

145:                                              ; preds = %144, %106
  br label %146

146:                                              ; preds = %145, %71
  br label %147

147:                                              ; preds = %146
  br label %148

148:                                              ; preds = %147
  br label %149

149:                                              ; preds = %148
  br label %150

150:                                              ; preds = %149
  %151 = load i32, ptr %5, align 4, !tbaa !4
  %152 = add nsw i32 %151, 1
  store i32 %152, ptr %5, align 4, !tbaa !4
  br label %23, !llvm.loop !19

153:                                              ; preds = %62, %53, %36, %23
  %154 = load i32, ptr %5, align 4, !tbaa !4
  %155 = load i32, ptr %3, align 4, !tbaa !4
  %156 = icmp eq i32 %154, %155
  br i1 %156, label %157, label %169

157:                                              ; preds = %153
  %158 = load i32, ptr @listing, align 4, !tbaa !4
  %159 = icmp ne i32 %158, 0
  br i1 %159, label %163, label %160

160:                                              ; preds = %157
  %161 = load i32, ptr @dumping, align 4, !tbaa !4
  %162 = icmp ne i32 %161, 0
  br i1 %162, label %169, label %163

163:                                              ; preds = %160, %157
  store i32 0, ptr @dumping, align 4, !tbaa !4
  %164 = load ptr, ptr %4, align 8, !tbaa !8
  %165 = load i32, ptr %5, align 4, !tbaa !4
  %166 = add nsw i32 %165, -1
  store i32 %166, ptr %5, align 4, !tbaa !4
  %167 = sext i32 %166 to i64
  %168 = getelementptr inbounds ptr, ptr %164, i64 %167
  store ptr @Output, ptr %168, align 8, !tbaa !16
  br label %169

169:                                              ; preds = %163, %160, %153
  %170 = load i32, ptr %6, align 4, !tbaa !4
  %171 = icmp ne i32 %170, 0
  br i1 %171, label %172, label %180

172:                                              ; preds = %169
  %173 = call i32 (ptr, ...) @printf(ptr noundef @.str.10, ptr noundef @.str.11, ptr noundef @.str.12)
  %174 = load i32, ptr %6, align 4, !tbaa !4
  %175 = load i32, ptr %3, align 4, !tbaa !4
  %176 = sub nsw i32 %175, 1
  %177 = icmp eq i32 %174, %176
  br i1 %177, label %178, label %179

178:                                              ; preds = %172
  call void @exit(i32 noundef 0) #9
  unreachable

179:                                              ; preds = %172
  br label %180

180:                                              ; preds = %179, %169
  %181 = load i32, ptr %5, align 4, !tbaa !4
  call void @llvm.lifetime.end.p0(i64 4, ptr %6) #7
  call void @llvm.lifetime.end.p0(i64 4, ptr %5) #7
  ret i32 %181
}

; Function Attrs: nounwind uwtable
define dso_local i32 @main(i32 noundef %0, ptr noundef %1) #0 {
  %3 = alloca i32, align 4
  %4 = alloca i32, align 4
  %5 = alloca ptr, align 8
  %6 = alloca ptr, align 8
  %7 = alloca %struct.Smain, align 8
  %8 = alloca i32, align 4
  store i32 0, ptr %3, align 4
  store i32 %0, ptr %4, align 4, !tbaa !4
  store ptr %1, ptr %5, align 8, !tbaa !8
  call void @llvm.lifetime.start.p0(i64 8, ptr %6) #7
  call void @llvm.lifetime.start.p0(i64 16, ptr %7) #7
  call void @llvm.lifetime.start.p0(i64 4, ptr %8) #7
  %9 = load i32, ptr %4, align 4, !tbaa !4
  %10 = load ptr, ptr %5, align 8, !tbaa !8
  %11 = call i32 @doargs(i32 noundef %9, ptr noundef %10)
  store i32 %11, ptr %8, align 4, !tbaa !4
  %12 = load i32, ptr %8, align 4, !tbaa !4
  %13 = load i32, ptr %4, align 4, !tbaa !4
  %14 = sub nsw i32 %13, %12
  store i32 %14, ptr %4, align 4, !tbaa !4
  %15 = load i32, ptr %8, align 4, !tbaa !4
  %16 = load ptr, ptr %5, align 8, !tbaa !8
  %17 = sext i32 %15 to i64
  %18 = getelementptr inbounds ptr, ptr %16, i64 %17
  store ptr %18, ptr %5, align 8, !tbaa !8
  %19 = load i32, ptr %4, align 4, !tbaa !4
  %20 = icmp sle i32 %19, 0
  br i1 %20, label %21, label %22

21:                                               ; preds = %2
  call void @usage(ptr noundef @.str)
  br label %22

22:                                               ; preds = %21, %2
  %23 = call ptr @luaL_newstate()
  store ptr %23, ptr %6, align 8, !tbaa !11
  %24 = load ptr, ptr %6, align 8, !tbaa !11
  %25 = icmp eq ptr %24, null
  br i1 %25, label %26, label %27

26:                                               ; preds = %22
  call void @fatal(ptr noundef @.str.1)
  br label %27

27:                                               ; preds = %26, %22
  %28 = load i32, ptr %4, align 4, !tbaa !4
  %29 = getelementptr inbounds nuw %struct.Smain, ptr %7, i32 0, i32 0
  store i32 %28, ptr %29, align 8, !tbaa !13
  %30 = load ptr, ptr %5, align 8, !tbaa !8
  %31 = getelementptr inbounds nuw %struct.Smain, ptr %7, i32 0, i32 1
  store ptr %30, ptr %31, align 8, !tbaa !15
  %32 = load ptr, ptr %6, align 8, !tbaa !11
  %33 = call i32 @lua_cpcall(ptr noundef %32, ptr noundef @pmain, ptr noundef %7)
  %34 = icmp ne i32 %33, 0
  br i1 %34, label %35, label %38

35:                                               ; preds = %27
  %36 = load ptr, ptr %6, align 8, !tbaa !11
  %37 = call ptr @lua_tolstring(ptr noundef %36, i32 noundef -1, ptr noundef null)
  call void @fatal(ptr noundef %37)
  br label %38

38:                                               ; preds = %35, %27
  %39 = load ptr, ptr %6, align 8, !tbaa !11
  call void @lua_close(ptr noundef %39)
  call void @llvm.lifetime.end.p0(i64 4, ptr %8) #7
  call void @llvm.lifetime.end.p0(i64 16, ptr %7) #7
  call void @llvm.lifetime.end.p0(i64 8, ptr %6) #7
  ret i32 0
}