; Function Attrs: nounwind uwtable
define dso_local noundef i32 @main(i32 noundef %0, ptr noundef %1) local_unnamed_addr #0 {
  %3 = alloca %struct.Smain, align 8
  call void @llvm.lifetime.start.p0(i64 16, ptr nonnull %3) #11
  %4 = load ptr, ptr %1, align 8, !tbaa !4
  %.not.i = icmp eq ptr %4, null
  br i1 %.not.i, label %8, label %5

5:                                                ; preds = %2
  %6 = load i8, ptr %4, align 1, !tbaa !9
  %.not45.i = icmp eq i8 %6, 0
  br i1 %.not45.i, label %8, label %7

7:                                                ; preds = %5
  store ptr %4, ptr @progname, align 8, !tbaa !4
  br label %8

8:                                                ; preds = %7, %5, %2
  %listing.promoted.i = load i32, ptr @listing, align 4
  %9 = icmp sgt i32 %0, 1
  br i1 %9, label %.lr.ph.i, label %.loopexit.i

.lr.ph.i:                                         ; preds = %8, %.tail64.thread.i
  %.092.i = phi i32 [ %.2.i, %.tail64.thread.i ], [ 0, %8 ]
  %.04091.i = phi i32 [ %58, %.tail64.thread.i ], [ 1, %8 ]
  %10 = phi i32 [ %57, %.tail64.thread.i ], [ %listing.promoted.i, %8 ]
  %11 = sext i32 %.04091.i to i64
  %12 = getelementptr inbounds ptr, ptr %1, i64 %11
  %13 = load ptr, ptr %12, align 8, !tbaa !4
  %14 = load i8, ptr %13, align 1, !tbaa !9
  %.not46.i = icmp eq i8 %14, 45
  br i1 %.not46.i, label %sub_1.i, label %.loopexit.i

sub_1.i:                                          ; preds = %.lr.ph.i
  %15 = getelementptr inbounds nuw i8, ptr %13, i64 1
  %16 = load i8, ptr %15, align 1
  switch i8 %16, label %.tail78.thread.i [
    i8 45, label %.tail.i
    i8 0, label %.loopexit.i
    i8 108, label %.tail54.i
    i8 111, label %.tail59.i
    i8 112, label %.tail68.i
    i8 115, label %.tail73.i
    i8 118, label %.tail78.i
  ]

.tail.i:                                          ; preds = %sub_1.i
  %17 = getelementptr inbounds nuw i8, ptr %13, i64 2
  %18 = load i8, ptr %17, align 1
  %19 = icmp eq i8 %18, 0
  br i1 %19, label %20, label %.tail78.thread.i

20:                                               ; preds = %.tail.i
  %21 = add nsw i32 %.04091.i, 1
  %.not47.i = icmp eq i32 %.092.i, 0
  %22 = add nsw i32 %.092.i, 1
  %spec.select.i = select i1 %.not47.i, i32 0, i32 %22
  br label %.loopexit.i

.tail54.i:                                        ; preds = %sub_1.i
  %23 = getelementptr inbounds nuw i8, ptr %13, i64 2
  %24 = load i8, ptr %23, align 1
  %25 = icmp eq i8 %24, 0
  br i1 %25, label %26, label %.tail78.thread.i

26:                                               ; preds = %.tail54.i
  %27 = add nsw i32 %10, 1
  store i32 %27, ptr @listing, align 4, !tbaa !10
  br label %.tail64.thread.i

.tail59.i:                                        ; preds = %sub_1.i
  %28 = getelementptr inbounds nuw i8, ptr %13, i64 2
  %29 = load i8, ptr %28, align 1
  %30 = icmp eq i8 %29, 0
  br i1 %30, label %31, label %.tail78.thread.i

31:                                               ; preds = %.tail59.i
  %32 = add nsw i32 %.04091.i, 1
  %33 = sext i32 %32 to i64
  %34 = getelementptr inbounds ptr, ptr %1, i64 %33
  %35 = load ptr, ptr %34, align 8, !tbaa !4
  store ptr %35, ptr @output, align 8, !tbaa !4
  %36 = icmp eq ptr %35, null
  br i1 %36, label %39, label %37

37:                                               ; preds = %31
  %38 = load i8, ptr %35, align 1, !tbaa !9
  switch i8 %38, label %.tail64.thread.i [
    i8 0, label %39
    i8 45, label %.tail64.i
  ]

39:                                               ; preds = %37, %31
  tail call fastcc void @usage(ptr noundef nonnull @.str.6)
  unreachable

.tail64.i:                                        ; preds = %37
  %40 = getelementptr inbounds nuw i8, ptr %35, i64 1
  %41 = load i8, ptr %40, align 1
  %42 = icmp eq i8 %41, 0
  br i1 %42, label %43, label %.tail64.thread.i

43:                                               ; preds = %.tail64.i
  store ptr null, ptr @output, align 8, !tbaa !4
  br label %.tail64.thread.i

.tail68.i:                                        ; preds = %sub_1.i
  %44 = getelementptr inbounds nuw i8, ptr %13, i64 2
  %45 = load i8, ptr %44, align 1
  %46 = icmp eq i8 %45, 0
  br i1 %46, label %47, label %.tail78.thread.i

47:                                               ; preds = %.tail68.i
  store i1 true, ptr @dumping, align 4
  br label %.tail64.thread.i

.tail73.i:                                        ; preds = %sub_1.i
  %48 = getelementptr inbounds nuw i8, ptr %13, i64 2
  %49 = load i8, ptr %48, align 1
  %50 = icmp eq i8 %49, 0
  br i1 %50, label %51, label %.tail78.thread.i

51:                                               ; preds = %.tail73.i
  store i1 true, ptr @stripping, align 4
  br label %.tail64.thread.i

.tail78.i:                                        ; preds = %sub_1.i
  %52 = getelementptr inbounds nuw i8, ptr %13, i64 2
  %53 = load i8, ptr %52, align 1
  %54 = icmp eq i8 %53, 0
  br i1 %54, label %55, label %.tail78.thread.i

55:                                               ; preds = %.tail78.i
  %56 = add nsw i32 %.092.i, 1
  br label %.tail64.thread.i

.tail78.thread.i:                                 ; preds = %sub_1.i, %.tail54.i, %.tail59.i, %.tail68.i, %.tail73.i, %.tail78.i, %.tail.i
  tail call fastcc void @usage(ptr noundef nonnull %13)
  unreachable

.tail64.thread.i:                                 ; preds = %55, %51, %47, %43, %.tail64.i, %37, %26
  %57 = phi i32 [ %27, %26 ], [ %10, %43 ], [ %10, %.tail64.i ], [ %10, %47 ], [ %10, %51 ], [ %10, %55 ], [ %10, %37 ]
  %.242.i = phi i32 [ %.04091.i, %26 ], [ %32, %43 ], [ %32, %.tail64.i ], [ %.04091.i, %47 ], [ %.04091.i, %51 ], [ %.04091.i, %55 ], [ %32, %37 ]
  %.2.i = phi i32 [ %.092.i, %26 ], [ %.092.i, %43 ], [ %.092.i, %.tail64.i ], [ %.092.i, %47 ], [ %.092.i, %51 ], [ %56, %55 ], [ %.092.i, %37 ]
  %58 = add nsw i32 %.242.i, 1
  %59 = icmp slt i32 %58, %0
  br i1 %59, label %.lr.ph.i, label %.loopexit.i, !llvm.loop !12

.loopexit.i:                                      ; preds = %sub_1.i, %.tail64.thread.i, %.lr.ph.i, %20, %8
  %60 = phi i32 [ %10, %20 ], [ %listing.promoted.i, %8 ], [ %10, %sub_1.i ], [ %10, %.lr.ph.i ], [ %57, %.tail64.thread.i ]
  %.141.i = phi i32 [ %21, %20 ], [ 1, %8 ], [ %.04091.i, %sub_1.i ], [ %.04091.i, %.lr.ph.i ], [ %58, %.tail64.thread.i ]
  %.1.i = phi i32 [ %spec.select.i, %20 ], [ 0, %8 ], [ %.092.i, %sub_1.i ], [ %.092.i, %.lr.ph.i ], [ %.2.i, %.tail64.thread.i ]
  %61 = icmp eq i32 %.141.i, %0
  br i1 %61, label %62, label %68

62:                                               ; preds = %.loopexit.i
  %63 = icmp ne i32 %60, 0
  %.b.i = load i1, ptr @dumping, align 4
  %or.cond.not.i = select i1 %63, i1 true, i1 %.b.i
  br i1 %or.cond.not.i, label %64, label %68

64:                                               ; preds = %62
  store i1 true, ptr @dumping, align 4
  %65 = add nsw i32 %0, -1
  %66 = sext i32 %65 to i64
  %67 = getelementptr inbounds ptr, ptr %1, i64 %66
  store ptr @Output, ptr %67, align 8, !tbaa !4
  br label %68

68:                                               ; preds = %64, %62, %.loopexit.i
  %.3.i = phi i32 [ %0, %62 ], [ %65, %64 ], [ %.141.i, %.loopexit.i ]
  %.not49.i = icmp eq i32 %.1.i, 0
  br i1 %.not49.i, label %doargs.exit, label %69

69:                                               ; preds = %68
  %70 = tail call i32 (ptr, ...) @printf(ptr noundef nonnull dereferenceable(1) @.str.10, ptr noundef nonnull @.str.11, ptr noundef nonnull @.str.12)
  %71 = add nsw i32 %0, -1
  %72 = icmp eq i32 %.1.i, %71
  br i1 %72, label %73, label %doargs.exit

73:                                               ; preds = %69
  tail call void @exit(i32 noundef 0) #12
  unreachable

doargs.exit:                                      ; preds = %68, %69
  %74 = sub nsw i32 %0, %.3.i
  %75 = sext i32 %.3.i to i64
  %76 = getelementptr inbounds ptr, ptr %1, i64 %75
  %77 = icmp slt i32 %74, 1
  br i1 %77, label %78, label %79

78:                                               ; preds = %doargs.exit
  tail call fastcc void @usage(ptr noundef nonnull @.str)
  unreachable

79:                                               ; preds = %doargs.exit
  %80 = tail call ptr @luaL_newstate() #11
  %81 = icmp eq ptr %80, null
  br i1 %81, label %82, label %83

82:                                               ; preds = %79
  tail call fastcc void @fatal(ptr noundef nonnull @.str.1)
  unreachable

83:                                               ; preds = %79
  store i32 %74, ptr %3, align 8, !tbaa !14
  %84 = getelementptr inbounds nuw i8, ptr %3, i64 8
  store ptr %76, ptr %84, align 8, !tbaa !17
  %85 = call i32 @lua_cpcall(ptr noundef nonnull %80, ptr noundef nonnull @pmain, ptr noundef nonnull %3) #11
  %.not = icmp eq i32 %85, 0
  br i1 %.not, label %88, label %86

86:                                               ; preds = %83
  %87 = call ptr @lua_tolstring(ptr noundef nonnull %80, i32 noundef -1, ptr noundef null) #11
  call fastcc void @fatal(ptr noundef %87)
  unreachable

88:                                               ; preds = %83
  call void @lua_close(ptr noundef nonnull %80) #11
  call void @llvm.lifetime.end.p0(i64 16, ptr nonnull %3) #11
  ret i32 0
}